; ModuleID = '20/666.c'
source_filename = "20/666.c"
target datalayout = "e-m:e-p270:32:32-p271:32:32-p272:64:64-i64:64-f80:128-n8:16:32:64-S128"
target triple = "x86_64-pc-linux-gnu"

@.str = private unnamed_addr constant [5 x i8] c"%s%s\00", align 1
@.str.1 = private unnamed_addr constant [4 x i8] c"%s\0A\00", align 1

; Function Attrs: noinline nounwind uwtable
define dso_local i32 @findmax(i8* %0) #0 {
  %2 = alloca i8*, align 8
  %3 = alloca i32, align 4
  %4 = alloca i32, align 4
  %5 = alloca i32, align 4
  store i8* %0, i8** %2, align 8
  %6 = load i8*, i8** %2, align 8
  %7 = load i8, i8* %6, align 1
  %8 = sext i8 %7 to i32
  store i32 %8, i32* %4, align 4
  store i32 0, i32* %5, align 4
  store i32 0, i32* %3, align 4
  br label %9

9:                                                ; preds = %34, %1
  %10 = load i8*, i8** %2, align 8
  %11 = load i32, i32* %3, align 4
  %12 = sext i32 %11 to i64
  %13 = getelementptr inbounds i8, i8* %10, i64 %12
  %14 = load i8, i8* %13, align 1
  %15 = icmp ne i8 %14, 0
  br i1 %15, label %16, label %37

16:                                               ; preds = %9
  %17 = load i8*, i8** %2, align 8
  %18 = load i32, i32* %3, align 4
  %19 = sext i32 %18 to i64
  %20 = getelementptr inbounds i8, i8* %17, i64 %19
  %21 = load i8, i8* %20, align 1
  %22 = sext i8 %21 to i32
  %23 = load i32, i32* %4, align 4
  %24 = icmp sgt i32 %22, %23
  br i1 %24, label %25, label %33

25:                                               ; preds = %16
  %26 = load i8*, i8** %2, align 8
  %27 = load i32, i32* %3, align 4
  %28 = sext i32 %27 to i64
  %29 = getelementptr inbounds i8, i8* %26, i64 %28
  %30 = load i8, i8* %29, align 1
  %31 = sext i8 %30 to i32
  store i32 %31, i32* %4, align 4
  %32 = load i32, i32* %3, align 4
  store i32 %32, i32* %5, align 4
  br label %33

33:                                               ; preds = %25, %16
  br label %34

34:                                               ; preds = %33
  %35 = load i32, i32* %3, align 4
  %36 = add nsw i32 %35, 1
  store i32 %36, i32* %3, align 4
  br label %9

37:                                               ; preds = %9
  %38 = load i32, i32* %5, align 4
  ret i32 %38
}

; Function Attrs: noinline nounwind uwtable
define dso_local void @insert(i8* %0, i8* %1, i32 %2) #0 {
  %4 = alloca i8*, align 8
  %5 = alloca i8*, align 8
  %6 = alloca i32, align 4
  %7 = alloca i32, align 4
  %8 = alloca i8*, align 8
  store i8* %0, i8** %4, align 8
  store i8* %1, i8** %5, align 8
  store i32 %2, i32* %6, align 4
  %9 = load i8*, i8** %4, align 8
  %10 = load i8*, i8** %4, align 8
  %11 = call i64 @strlen(i8* %10) #4
  %12 = getelementptr inbounds i8, i8* %9, i64 %11
  store i8* %12, i8** %8, align 8
  br label %13

13:                                               ; preds = %27, %3
  %14 = load i8*, i8** %8, align 8
  %15 = load i8*, i8** %4, align 8
  %16 = load i32, i32* %6, align 4
  %17 = sext i32 %16 to i64
  %18 = getelementptr inbounds i8, i8* %15, i64 %17
  %19 = icmp ugt i8* %14, %18
  br i1 %19, label %20, label %30

20:                                               ; preds = %13
  %21 = load i8*, i8** %8, align 8
  %22 = load i8, i8* %21, align 1
  %23 = load i8*, i8** %8, align 8
  %24 = load i8*, i8** %5, align 8
  %25 = call i64 @strlen(i8* %24) #4
  %26 = getelementptr inbounds i8, i8* %23, i64 %25
  store i8 %22, i8* %26, align 1
  br label %27

27:                                               ; preds = %20
  %28 = load i8*, i8** %8, align 8
  %29 = getelementptr inbounds i8, i8* %28, i32 -1
  store i8* %29, i8** %8, align 8
  br label %13

30:                                               ; preds = %13
  store i32 0, i32* %7, align 4
  br label %31

31:                                               ; preds = %51, %30
  %32 = load i32, i32* %7, align 4
  %33 = sext i32 %32 to i64
  %34 = load i8*, i8** %5, align 8
  %35 = call i64 @strlen(i8* %34) #4
  %36 = icmp ult i64 %33, %35
  br i1 %36, label %37, label %54

37:                                               ; preds = %31
  %38 = load i8*, i8** %5, align 8
  %39 = load i32, i32* %7, align 4
  %40 = sext i32 %39 to i64
  %41 = getelementptr inbounds i8, i8* %38, i64 %40
  %42 = load i8, i8* %41, align 1
  %43 = load i8*, i8** %4, align 8
  %44 = load i32, i32* %6, align 4
  %45 = sext i32 %44 to i64
  %46 = getelementptr inbounds i8, i8* %43, i64 %45
  %47 = getelementptr inbounds i8, i8* %46, i64 1
  %48 = load i32, i32* %7, align 4
  %49 = sext i32 %48 to i64
  %50 = getelementptr inbounds i8, i8* %47, i64 %49
  store i8 %42, i8* %50, align 1
  br label %51

51:                                               ; preds = %37
  %52 = load i32, i32* %7, align 4
  %53 = add nsw i32 %52, 1
  store i32 %53, i32* %7, align 4
  br label %31

54:                                               ; preds = %31
  ret void
}

; Function Attrs: nounwind readonly
declare dso_local i64 @strlen(i8*) #1

; Function Attrs: noinline nounwind uwtable
define dso_local i32 @main() #0 {
  %1 = alloca i32, align 4
  %2 = alloca i32, align 4
  %3 = alloca i8*, align 8
  %4 = alloca i8*, align 8
  store i32 0, i32* %1, align 4
  %5 = call noalias i8* @malloc(i64 11) #5
  store i8* %5, i8** %3, align 8
  %6 = call noalias i8* @malloc(i64 3) #5
  store i8* %6, i8** %4, align 8
  br label %7

7:                                                ; preds = %12, %0
  %8 = load i8*, i8** %3, align 8
  %9 = load i8*, i8** %4, align 8
  %10 = call i32 (i8*, ...) @__isoc99_scanf(i8* getelementptr inbounds ([5 x i8], [5 x i8]* @.str, i64 0, i64 0), i8* %8, i8* %9)
  %11 = icmp ne i32 %10, -1
  br i1 %11, label %12, label %20

12:                                               ; preds = %7
  %13 = load i8*, i8** %3, align 8
  %14 = call i32 @findmax(i8* %13)
  store i32 %14, i32* %2, align 4
  %15 = load i8*, i8** %3, align 8
  %16 = load i8*, i8** %4, align 8
  %17 = load i32, i32* %2, align 4
  call void @insert(i8* %15, i8* %16, i32 %17)
  %18 = load i8*, i8** %3, align 8
  %19 = call i32 (i8*, ...) @printf(i8* getelementptr inbounds ([4 x i8], [4 x i8]* @.str.1, i64 0, i64 0), i8* %18)
  br label %7

20:                                               ; preds = %7
  ret i32 0
}

; Function Attrs: nounwind
declare dso_local noalias i8* @malloc(i64) #2

declare dso_local i32 @__isoc99_scanf(i8*, ...) #3

declare dso_local i32 @printf(i8*, ...) #3


!llvm.module.flags = !{!0}
!llvm.ident = !{!1}

!0 = !{i32 1, !"wchar_size", i32 4}
!1 = !{!"clang version 10.0.0-4ubuntu1 "}
